target datalayout = "e-m:e-p270:32:32-p271:32:32-p272:64:64-i64:64-i128:128-f80:128-n8:16:32:64-S128"
target triple = "x86_64-pc-linux-gnu"

%"class.pxrInternal_v0_24__pxrReserved__::UsdZipFile::Iterator" = type { %"class.std::unique_ptr.13" }
%"class.std::unique_ptr.13" = type { %"struct.std::__uniq_ptr_data.14" }
%"struct.std::__uniq_ptr_data.14" = type { %"class.std::__uniq_ptr_impl.15" }
%"class.std::__uniq_ptr_impl.15" = type { %"class.std::tuple.16" }
%"class.std::tuple.16" = type { %"struct.std::_Tuple_impl.17" }
%"struct.std::_Tuple_impl.17" = type { %"struct.std::_Head_base.20" }
%"struct.std::_Head_base.20" = type { ptr }

@_ZN32pxrInternal_v0_24__pxrReserved__10UsdZipFile8IteratorC1ERKS1_ = unnamed_addr alias void (ptr, ptr), ptr @_ZN32pxrInternal_v0_24__pxrReserved__10UsdZipFile8IteratorC2ERKS1_
@_ZN32pxrInternal_v0_24__pxrReserved__10UsdZipFile8IteratorD1Ev = unnamed_addr alias void (ptr), ptr @_ZN32pxrInternal_v0_24__pxrReserved__10UsdZipFile8IteratorD2Ev

; Function Attrs: mustprogress uwtable
define void @_ZN32pxrInternal_v0_24__pxrReserved__10UsdZipFile8IteratorppEi(ptr dead_on_unwind noalias writable sret(%"class.pxrInternal_v0_24__pxrReserved__::UsdZipFile::Iterator") align 8 %0, ptr noundef nonnull align 8 dereferenceable(8) %1, i32 noundef %2) #0 align 2 personality ptr @__gxx_personality_v0 {
  %4 = alloca ptr, align 8
  %5 = alloca ptr, align 8
  %6 = alloca i32, align 4
  %7 = alloca i1, align 1
  %8 = alloca ptr, align 8
  %9 = alloca i32, align 4
  store ptr %0, ptr %4, align 8
  store ptr %1, ptr %5, align 8
  store i32 %2, ptr %6, align 4
  %10 = load ptr, ptr %5, align 8
  store i1 false, ptr %7, align 1
  call void @_ZN32pxrInternal_v0_24__pxrReserved__10UsdZipFile8IteratorC1ERKS1_(ptr noundef nonnull align 8 dereferenceable(8) %0, ptr noundef nonnull align 8 dereferenceable(8) %10)
  %11 = invoke noundef nonnull align 8 dereferenceable(8) ptr @_ZN32pxrInternal_v0_24__pxrReserved__10UsdZipFile8IteratorppEv(ptr noundef nonnull align 8 dereferenceable(8) %10)
          to label %12 unwind label %14

12:                                               ; preds = %3
  store i1 true, ptr %7, align 1
  %13 = load i1, ptr %7, align 1
  br i1 %13, label %19, label %18

14:                                               ; preds = %3
  %15 = landingpad { ptr, i32 }
          cleanup
  %16 = extractvalue { ptr, i32 } %15, 0
  store ptr %16, ptr %8, align 8
  %17 = extractvalue { ptr, i32 } %15, 1
  store i32 %17, ptr %9, align 4
  call void @_ZN32pxrInternal_v0_24__pxrReserved__10UsdZipFile8IteratorD1Ev(ptr noundef nonnull align 8 dereferenceable(8) %0) #11
  br label %20

18:                                               ; preds = %12
  call void @_ZN32pxrInternal_v0_24__pxrReserved__10UsdZipFile8IteratorD1Ev(ptr noundef nonnull align 8 dereferenceable(8) %0) #11
  br label %19

19:                                               ; preds = %18, %12
  ret void

20:                                               ; preds = %14
  %21 = load ptr, ptr %8, align 8
  %22 = load i32, ptr %9, align 4
  %23 = insertvalue { ptr, i32 } poison, ptr %21, 0
  %24 = insertvalue { ptr, i32 } %23, i32 %22, 1
  resume { ptr, i32 } %24
}